target datalayout = "e-m:e-p270:32:32-p271:32:32-p272:64:64-i64:64-i128:128-f80:128-n8:16:32:64-S128"
target triple = "x86_64-pc-linux-gnu"

%struct.tftp_state_data = type { i32, i32, i32, i32, ptr, i32, i32, i32, i32, i64, %struct.Curl_sockaddr_storage, %struct.Curl_sockaddr_storage, i32, i32, i32, i32, i32, i16, %struct.tftp_packet, %struct.tftp_packet }
%struct.Curl_sockaddr_storage = type { %union.anon.0 }
%union.anon.0 = type { %struct.sockaddr_storage }
%struct.sockaddr_storage = type { i16, [118 x i8], i64 }
%struct.tftp_packet = type { ptr }

; Function Attrs: nounwind uwtable
define internal i32 @tftp_option_add(ptr noundef %0, ptr noundef %1, ptr noundef %2, ptr noundef %3) #0 {
  %5 = alloca i32, align 4
  %6 = alloca ptr, align 8
  %7 = alloca ptr, align 8
  %8 = alloca ptr, align 8
  %9 = alloca ptr, align 8
  store ptr %0, ptr %6, align 8, !tbaa !96
  store ptr %1, ptr %7, align 8, !tbaa !144
  store ptr %2, ptr %8, align 8, !tbaa !87
  store ptr %3, ptr %9, align 8, !tbaa !87
  %10 = load ptr, ptr %9, align 8, !tbaa !87
  %11 = call i64 @strlen(ptr noundef %10) #7
  %12 = load ptr, ptr %7, align 8, !tbaa !144
  %13 = load i64, ptr %12, align 8, !tbaa !117
  %14 = add i64 %11, %13
  %15 = add i64 %14, 1
  %16 = load ptr, ptr %6, align 8, !tbaa !96
  %17 = getelementptr inbounds nuw %struct.tftp_state_data, ptr %16, i32 0, i32 15
  %18 = load i32, ptr %17, align 4, !tbaa !109
  %19 = sext i32 %18 to i64
  %20 = icmp ugt i64 %15, %19
  br i1 %20, label %21, label %22

21:                                               ; preds = %4
  store i32 71, ptr %5, align 4
  br label %32

22:                                               ; preds = %4
  %23 = load ptr, ptr %8, align 8, !tbaa !87
  %24 = load ptr, ptr %9, align 8, !tbaa !87
  %25 = call ptr @strcpy(ptr noundef %23, ptr noundef %24) #6
  %26 = load ptr, ptr %9, align 8, !tbaa !87
  %27 = call i64 @strlen(ptr noundef %26) #7
  %28 = add i64 %27, 1
  %29 = load ptr, ptr %7, align 8, !tbaa !144
  %30 = load i64, ptr %29, align 8, !tbaa !117
  %31 = add i64 %30, %28
  store i64 %31, ptr %29, align 8, !tbaa !117
  store i32 0, ptr %5, align 4
  br label %32

32:                                               ; preds = %22, %21
  %33 = load i32, ptr %5, align 4
  ret i32 %33
}