; Function Attrs: mustprogress nofree nounwind willreturn memory(argmem: readwrite) uwtable
define internal fastcc range(i32 0, 72) i32 @tftp_option_add(i32 %.316.val, ptr noundef nonnull captures(none) %0, ptr noundef %1, ptr noundef readonly captures(none) %2) unnamed_addr #8 {
  %4 = tail call i64 @strlen(ptr noundef nonnull dereferenceable(1) %2) #12
  %5 = load i64, ptr %0, align 8, !tbaa !128
  %6 = add i64 %4, 1
  %7 = add i64 %6, %5
  %8 = sext i32 %.316.val to i64
  %9 = icmp ugt i64 %7, %8
  br i1 %9, label %16, label %10

10:                                               ; preds = %3
  %11 = tail call ptr @strcpy(ptr noundef nonnull dereferenceable(1) %1, ptr noundef nonnull dereferenceable(1) %2) #13
  %12 = tail call i64 @strlen(ptr noundef nonnull dereferenceable(1) %2) #12
  %13 = add i64 %12, 1
  %14 = load i64, ptr %0, align 8, !tbaa !128
  %15 = add i64 %13, %14
  store i64 %15, ptr %0, align 8, !tbaa !128
  br label %16

16:                                               ; preds = %3, %10
  %.0 = phi i32 [ 0, %10 ], [ 71, %3 ]
  ret i32 %.0
}